	.file	"preprocess.cpp"
	.text
	.section .rdata,"dr"
__ZStL19piecewise_construct:
	.space 1
__ZStL13allocator_arg:
	.space 1
__ZStL6ignore:
	.space 1
.lcomm __ZStL8__ioinit,1,1
	.align 4
__ZN9__gnu_cxxL21__default_lock_policyE:
	.long	2
__ZStL10defer_lock:
	.space 1
__ZStL11try_to_lock:
	.space 1
__ZStL10adopt_lock:
	.space 1
	.align 4
__ZNSt15regex_constantsL5icaseE:
	.long	1
	.align 4
__ZNSt15regex_constantsL6nosubsE:
	.long	2
	.align 4
__ZNSt15regex_constantsL8optimizeE:
	.long	4
	.align 4
__ZNSt15regex_constantsL7collateE:
	.long	8
	.align 4
__ZNSt15regex_constantsL10ECMAScriptE:
	.long	16
	.align 4
__ZNSt15regex_constantsL5basicE:
	.long	32
	.align 4
__ZNSt15regex_constantsL8extendedE:
	.long	64
	.align 4
__ZNSt15regex_constantsL3awkE:
	.long	128
	.align 4
__ZNSt15regex_constantsL4grepE:
	.long	256
	.align 4
__ZNSt15regex_constantsL5egrepE:
	.long	512
	.align 4
__ZNSt15regex_constantsL12__polynomialE:
	.long	1024
	.align 4
__ZNSt15regex_constantsL13match_defaultE:
	.space 4
	.align 4
__ZNSt15regex_constantsL13match_not_bolE:
	.long	1
	.align 4
__ZNSt15regex_constantsL13match_not_eolE:
	.long	2
	.align 4
__ZNSt15regex_constantsL13match_not_bowE:
	.long	4
	.align 4
__ZNSt15regex_constantsL13match_not_eowE:
	.long	8
	.align 4
__ZNSt15regex_constantsL9match_anyE:
	.long	16
	.align 4
__ZNSt15regex_constantsL14match_not_nullE:
	.long	32
	.align 4
__ZNSt15regex_constantsL16match_continuousE:
	.long	64
	.align 4
__ZNSt15regex_constantsL16match_prev_availE:
	.long	128
	.align 4
__ZNSt15regex_constantsL14format_defaultE:
	.space 4
	.align 4
__ZNSt15regex_constantsL10format_sedE:
	.long	256
	.align 4
__ZNSt15regex_constantsL14format_no_copyE:
	.long	512
	.align 4
__ZNSt15regex_constantsL17format_first_onlyE:
	.long	1024
	.align 4
__ZNSt15regex_constantsL13error_collateE:
	.space 4
	.align 4
__ZNSt15regex_constantsL11error_ctypeE:
	.long	1
	.align 4
__ZNSt15regex_constantsL12error_escapeE:
	.long	2
	.align 4
__ZNSt15regex_constantsL13error_backrefE:
	.long	3
	.align 4
__ZNSt15regex_constantsL11error_brackE:
	.long	4
	.align 4
__ZNSt15regex_constantsL11error_parenE:
	.long	5
	.align 4
__ZNSt15regex_constantsL11error_braceE:
	.long	6
	.align 4
__ZNSt15regex_constantsL14error_badbraceE:
	.long	7
	.align 4
__ZNSt15regex_constantsL11error_rangeE:
	.long	8
	.align 4
__ZNSt15regex_constantsL11error_spaceE:
	.long	9
	.align 4
__ZNSt15regex_constantsL15error_badrepeatE:
	.long	10
	.align 4
__ZNSt15regex_constantsL16error_complexityE:
	.long	11
	.align 4
__ZNSt15regex_constantsL11error_stackE:
	.long	12
	.align 4
__ZNSt8__detailL19_S_invalid_state_idE:
	.long	-1
	.section	.text$_ZSt3minIjERKT_S2_S2_,"x"
	.linkonce discard
	.globl	__ZSt3minIjERKT_S2_S2_
	.def	__ZSt3minIjERKT_S2_S2_;	.scl	2;	.type	32;	.endef
__ZSt3minIjERKT_S2_S2_:
LFB7324:
	.cfi_startproc
	pushl	%ebp
	.cfi_def_cfa_offset 8
	.cfi_offset 5, -8
	movl	%esp, %ebp
	.cfi_def_cfa_register 5
	movl	12(%ebp), %eax
	movl	(%eax), %edx
	movl	8(%ebp), %eax
	movl	(%eax), %eax
	cmpl	%eax, %edx
	jnb	L2
	movl	12(%ebp), %eax
	jmp	L3
L2:
	movl	8(%ebp), %eax
L3:
	popl	%ebp
	.cfi_restore 5
	.cfi_def_cfa 4, 4
	ret
	.cfi_endproc
LFE7324:
	.section	.text$_ZSt3powIiiEN9__gnu_cxx11__promote_2IT_T0_NS0_9__promoteIS2_XsrSt12__is_integerIS2_E7__valueEE6__typeENS4_IS3_XsrS5_IS3_E7__valueEE6__typeEE6__typeES2_S3_,"x"
	.linkonce discard
	.globl	__ZSt3powIiiEN9__gnu_cxx11__promote_2IT_T0_NS0_9__promoteIS2_XsrSt12__is_integerIS2_E7__valueEE6__typeENS4_IS3_XsrS5_IS3_E7__valueEE6__typeEE6__typeES2_S3_
	.def	__ZSt3powIiiEN9__gnu_cxx11__promote_2IT_T0_NS0_9__promoteIS2_XsrSt12__is_integerIS2_E7__valueEE6__typeENS4_IS3_XsrS5_IS3_E7__valueEE6__typeEE6__typeES2_S3_;	.scl	2;	.type	32;	.endef
__ZSt3powIiiEN9__gnu_cxx11__promote_2IT_T0_NS0_9__promoteIS2_XsrSt12__is_integerIS2_E7__valueEE6__typeENS4_IS3_XsrS5_IS3_E7__valueEE6__typeEE6__typeES2_S3_:
LFB7826:
	.cfi_startproc
	pushl	%ebp
	.cfi_def_cfa_offset 8
	.cfi_offset 5, -8
	movl	%esp, %ebp
	.cfi_def_cfa_register 5
	subl	$24, %esp
	fildl	12(%ebp)
	fildl	8(%ebp)
	fxch	%st(1)
	fstpl	8(%esp)
	fstpl	(%esp)
	call	_pow
	leave
	.cfi_restore 5
	.cfi_def_cfa 4, 4
	ret
	.cfi_endproc
LFE7826:
	.def	___main;	.scl	2;	.type	32;	.endef
	.section .rdata,"dr"
	.align 4
LC1:
	.ascii "tfgfdgfhgfhgfhghjuyiuyhjhjdsfhauifywjsahfjashfkuayfjsdvgshguykdhfhuhfjdscxzhcusdhjcxvhlsuifskjxvhvhjfyiuykjzxvhjk\0"
LC2:
	.ascii "Hello World\12\0"
LC3:
	.ascii " \0"
LC5:
	.ascii "\12\0"
	.text
	.globl	_main
	.def	_main;	.scl	2;	.type	32;	.endef
_main:
LFB7825:
	.cfi_startproc
	.cfi_personality 0,___gxx_personality_v0
	.cfi_lsda 0,LLSDA7825
	leal	4(%esp), %ecx
	.cfi_def_cfa 1, 0
	andl	$-16, %esp
	pushl	-4(%ecx)
	pushl	%ebp
	.cfi_escape 0x10,0x5,0x2,0x75,0
	movl	%esp, %ebp
	pushl	%ebx
	pushl	%ecx
	.cfi_escape 0xf,0x3,0x75,0x78,0x6
	.cfi_escape 0x10,0x3,0x2,0x75,0x7c
	subl	$160, %esp
	call	___main
	movl	$10, -40(%ebp)
	leal	-66(%ebp), %eax
	movl	%eax, %ecx
	call	__ZNSaIcEC1Ev
	leal	-92(%ebp), %eax
	leal	-66(%ebp), %edx
	movl	%edx, 4(%esp)
	movl	$LC1, (%esp)
	movl	%eax, %ecx
LEHB0:
	call	__ZNSt7__cxx1112basic_stringIcSt11char_traitsIcESaIcEEC1EPKcRKS3_
LEHE0:
	subl	$8, %esp
	leal	-66(%ebp), %eax
	movl	%eax, %ecx
	call	__ZNSaIcED1Ev
	movl	$LC2, 4(%esp)
	movl	$__ZSt4cout, (%esp)
LEHB1:
	call	__ZStlsISt11char_traitsIcEERSt13basic_ostreamIcT_ES5_PKc
	movl	$10, (%esp)
	movl	$__ZSt4cout, %ecx
	call	__ZNSolsEi
	subl	$4, %esp
	movl	$__ZSt4endlIcSt11char_traitsIcEERSt13basic_ostreamIT_T0_ES6_, (%esp)
	movl	%eax, %ecx
	call	__ZNSolsEPFRSoS_E
	subl	$4, %esp
	movl	$4, (%esp)
	movl	$__ZSt4cout, %ecx
	call	__ZNSolsEj
	subl	$4, %esp
	movl	$__ZSt4endlIcSt11char_traitsIcEERSt13basic_ostreamIT_T0_ES6_, (%esp)
	movl	%eax, %ecx
	call	__ZNSolsEPFRSoS_E
	subl	$4, %esp
	movl	$4, (%esp)
	movl	$__ZSt4cout, %ecx
	call	__ZNSolsEj
	subl	$4, %esp
	movl	$LC3, 4(%esp)
	movl	%eax, (%esp)
	call	__ZStlsISt11char_traitsIcEERSt13basic_ostreamIcT_ES5_PKc
	movl	$8, (%esp)
	movl	%eax, %ecx
	call	__ZNSolsEj
	subl	$4, %esp
	movl	$LC3, 4(%esp)
	movl	%eax, (%esp)
	call	__ZStlsISt11char_traitsIcEERSt13basic_ostreamIcT_ES5_PKc
	movl	$8, (%esp)
	movl	%eax, %ecx
	call	__ZNSolsEj
	subl	$4, %esp
	movl	$LC3, 4(%esp)
	movl	%eax, (%esp)
	call	__ZStlsISt11char_traitsIcEERSt13basic_ostreamIcT_ES5_PKc
	movl	$2, (%esp)
	movl	%eax, %ecx
	call	__ZNSolsEj
	subl	$4, %esp
	movl	$LC3, 4(%esp)
	movl	%eax, (%esp)
	call	__ZStlsISt11char_traitsIcEERSt13basic_ostreamIcT_ES5_PKc
	movl	$2, (%esp)
	movl	%eax, %ecx
	call	__ZNSolsEj
	subl	$4, %esp
	movl	$__ZSt4endlIcSt11char_traitsIcEERSt13basic_ostreamIT_T0_ES6_, (%esp)
	movl	%eax, %ecx
	call	__ZNSolsEPFRSoS_E
	subl	$4, %esp
	movl	$4, (%esp)
	movl	$__ZSt4cout, %ecx
	call	__ZNSolsEj
	subl	$4, %esp
	movl	$LC3, 4(%esp)
	movl	%eax, (%esp)
	call	__ZStlsISt11char_traitsIcEERSt13basic_ostreamIcT_ES5_PKc
	movl	$8, (%esp)
	movl	%eax, %ecx
	call	__ZNSolsEj
	subl	$4, %esp
	movl	$__ZSt4endlIcSt11char_traitsIcEERSt13basic_ostreamIT_T0_ES6_, (%esp)
	movl	%eax, %ecx
	call	__ZNSolsEPFRSoS_E
	subl	$4, %esp
	movl	$1, (%esp)
	movl	$__ZSt4cout, %ecx
	call	__ZNSolsEj
	subl	$4, %esp
	movl	$__ZSt4endlIcSt11char_traitsIcEERSt13basic_ostreamIT_T0_ES6_, (%esp)
	movl	%eax, %ecx
	call	__ZNSolsEPFRSoS_E
	subl	$4, %esp
	movl	$24, (%esp)
	movl	$__ZSt4cout, %ecx
	call	__ZNSolsEj
	subl	$4, %esp
	movl	$__ZSt4endlIcSt11char_traitsIcEERSt13basic_ostreamIT_T0_ES6_, (%esp)
	movl	%eax, %ecx
	call	__ZNSolsEPFRSoS_E
	subl	$4, %esp
	leal	-92(%ebp), %eax
	movl	%eax, %ecx
	call	__ZNKSt7__cxx1112basic_stringIcSt11char_traitsIcESaIcEE6lengthEv
	movl	%eax, (%esp)
	movl	$__ZSt4cout, %ecx
	call	__ZNSolsEj
	subl	$4, %esp
	movl	$__ZSt4endlIcSt11char_traitsIcEERSt13basic_ostreamIT_T0_ES6_, (%esp)
	movl	%eax, %ecx
	call	__ZNSolsEPFRSoS_E
	subl	$4, %esp
	leal	-92(%ebp), %eax
	movl	%eax, %ecx
	call	__ZNKSt7__cxx1112basic_stringIcSt11char_traitsIcESaIcEE4sizeEv
	movl	%eax, (%esp)
	movl	$__ZSt4cout, %ecx
	call	__ZNSolsEj
	subl	$4, %esp
	movl	$__ZSt4endlIcSt11char_traitsIcEERSt13basic_ostreamIT_T0_ES6_, (%esp)
	movl	%eax, %ecx
	call	__ZNSolsEPFRSoS_E
	subl	$4, %esp
	movl	$1635344723, -96(%ebp)
	movl	$1635344723, -101(%ebp)
	movb	$0, -97(%ebp)
	leal	-96(%ebp), %eax
	movl	%eax, 4(%esp)
	movl	$__ZSt4cout, (%esp)
	call	__ZStlsISt11char_traitsIcEERSt13basic_ostreamIcT_ES5_PKc
	movl	$__ZSt4endlIcSt11char_traitsIcEERSt13basic_ostreamIT_T0_ES6_, (%esp)
	movl	%eax, %ecx
	call	__ZNSolsEPFRSoS_E
	subl	$4, %esp
	movl	$5, (%esp)
	movl	$__ZSt4cout, %ecx
	call	__ZNSolsEj
	subl	$4, %esp
	movl	$__ZSt4endlIcSt11char_traitsIcEERSt13basic_ostreamIT_T0_ES6_, (%esp)
	movl	%eax, %ecx
	call	__ZNSolsEPFRSoS_E
	subl	$4, %esp
	movl	$4, (%esp)
	movl	$__ZSt4cout, %ecx
	call	__ZNSolsEj
	subl	$4, %esp
	movl	$__ZSt4endlIcSt11char_traitsIcEERSt13basic_ostreamIT_T0_ES6_, (%esp)
	movl	%eax, %ecx
	call	__ZNSolsEPFRSoS_E
	subl	$4, %esp
	movl	$-1, -44(%ebp)
	movl	-44(%ebp), %eax
	movl	%eax, -48(%ebp)
	movl	-48(%ebp), %eax
	movl	%eax, (%esp)
	movl	$__ZSt4cout, %ecx
	call	__ZNSolsEi
	subl	$4, %esp
	movl	$__ZSt4endlIcSt11char_traitsIcEERSt13basic_ostreamIT_T0_ES6_, (%esp)
	movl	%eax, %ecx
	call	__ZNSolsEPFRSoS_E
	subl	$4, %esp
	movl	$31, 4(%esp)
	movl	$2, (%esp)
	call	__ZSt3powIiiEN9__gnu_cxx11__promote_2IT_T0_NS0_9__promoteIS2_XsrSt12__is_integerIS2_E7__valueEE6__typeENS4_IS3_XsrS5_IS3_E7__valueEE6__typeEE6__typeES2_S3_
	fld1
	fsubrp	%st, %st(1)
	fstpl	-144(%ebp)
	movl	$31, 4(%esp)
	movl	$2, (%esp)
	call	__ZSt3powIiiEN9__gnu_cxx11__promote_2IT_T0_NS0_9__promoteIS2_XsrSt12__is_integerIS2_E7__valueEE6__typeENS4_IS3_XsrS5_IS3_E7__valueEE6__typeEE6__typeES2_S3_
	faddl	-144(%ebp)
	fstpl	(%esp)
	movl	$__ZSt4cout, %ecx
	call	__ZNSolsEd
	subl	$8, %esp
	movl	$__ZSt4endlIcSt11char_traitsIcEERSt13basic_ostreamIT_T0_ES6_, (%esp)
	movl	%eax, %ecx
	call	__ZNSolsEPFRSoS_E
	subl	$4, %esp
	movl	$12, (%esp)
	call	__Znaj
	movl	%eax, -52(%ebp)
	movl	-52(%ebp), %eax
	movl	$1, (%eax)
	movl	-52(%ebp), %eax
	addl	$4, %eax
	movl	$2, (%eax)
	movl	-52(%ebp), %eax
	addl	$8, %eax
	movl	$3, (%eax)
	movl	-52(%ebp), %eax
	subl	$4, %eax
	movl	(%eax), %eax
	movl	%eax, (%esp)
	movl	$__ZSt4cout, %ecx
	call	__ZNSolsEi
	subl	$4, %esp
	movl	$LC3, 4(%esp)
	movl	%eax, (%esp)
	call	__ZStlsISt11char_traitsIcEERSt13basic_ostreamIcT_ES5_PKc
	movl	%eax, %edx
	movl	-52(%ebp), %eax
	addl	$8, %eax
	movl	(%eax), %eax
	movl	%eax, (%esp)
	movl	%edx, %ecx
	call	__ZNSolsEi
	subl	$4, %esp
	movl	$__ZSt4endlIcSt11char_traitsIcEERSt13basic_ostreamIT_T0_ES6_, (%esp)
	movl	%eax, %ecx
	call	__ZNSolsEPFRSoS_E
	subl	$4, %esp
	movl	$0, -116(%ebp)
	movl	$0, -112(%ebp)
	movl	$0, -108(%ebp)
	movl	$1, -116(%ebp)
	movl	$2, -112(%ebp)
	movl	$12, (%esp)
	call	__Znaj
LEHE1:
	movl	%eax, -56(%ebp)
	leal	-65(%ebp), %eax
	movl	%eax, %ecx
	call	__ZNSaIiEC1Ev
	leal	-128(%ebp), %eax
	leal	-65(%ebp), %edx
	movl	%edx, 4(%esp)
	movl	$3, (%esp)
	movl	%eax, %ecx
LEHB2:
	call	__ZNSt6vectorIiSaIiEEC1EjRKS0_
LEHE2:
	subl	$8, %esp
	leal	-65(%ebp), %eax
	movl	%eax, %ecx
	call	__ZNSaIiED1Ev
	movl	-116(%ebp), %eax
	movl	%eax, (%esp)
	movl	$__ZSt4cout, %ecx
LEHB3:
	call	__ZNSolsEi
	subl	$4, %esp
	movl	$LC3, 4(%esp)
	movl	%eax, (%esp)
	call	__ZStlsISt11char_traitsIcEERSt13basic_ostreamIcT_ES5_PKc
	movl	%eax, %edx
	movl	-56(%ebp), %eax
	movl	(%eax), %eax
	movl	%eax, (%esp)
	movl	%edx, %ecx
	call	__ZNSolsEi
	subl	$4, %esp
	movl	$LC3, 4(%esp)
	movl	%eax, (%esp)
	call	__ZStlsISt11char_traitsIcEERSt13basic_ostreamIcT_ES5_PKc
	movl	%eax, %ebx
	leal	-128(%ebp), %eax
	movl	$0, (%esp)
	movl	%eax, %ecx
	call	__ZNSt6vectorIiSaIiEEixEj
	subl	$4, %esp
	movl	(%eax), %eax
	movl	%eax, (%esp)
	movl	%ebx, %ecx
	call	__ZNSolsEi
	subl	$4, %esp
	movl	$__ZSt4endlIcSt11char_traitsIcEERSt13basic_ostreamIT_T0_ES6_, (%esp)
	movl	%eax, %ecx
	call	__ZNSolsEPFRSoS_E
	subl	$4, %esp
	movl	-112(%ebp), %eax
	movl	%eax, (%esp)
	movl	$__ZSt4cout, %ecx
	call	__ZNSolsEi
	subl	$4, %esp
	movl	$LC3, 4(%esp)
	movl	%eax, (%esp)
	call	__ZStlsISt11char_traitsIcEERSt13basic_ostreamIcT_ES5_PKc
	movl	%eax, %edx
	movl	-56(%ebp), %eax
	addl	$4, %eax
	movl	(%eax), %eax
	movl	%eax, (%esp)
	movl	%edx, %ecx
	call	__ZNSolsEi
	subl	$4, %esp
	movl	$LC3, 4(%esp)
	movl	%eax, (%esp)
	call	__ZStlsISt11char_traitsIcEERSt13basic_ostreamIcT_ES5_PKc
	movl	%eax, %ebx
	leal	-128(%ebp), %eax
	movl	$1, (%esp)
	movl	%eax, %ecx
	call	__ZNSt6vectorIiSaIiEEixEj
	subl	$4, %esp
	movl	(%eax), %eax
	movl	%eax, (%esp)
	movl	%ebx, %ecx
	call	__ZNSolsEi
	subl	$4, %esp
	movl	$__ZSt4endlIcSt11char_traitsIcEERSt13basic_ostreamIT_T0_ES6_, (%esp)
	movl	%eax, %ecx
	call	__ZNSolsEPFRSoS_E
	subl	$4, %esp
	movl	$20, (%esp)
	call	__Znaj
	movl	%eax, -60(%ebp)
	movl	$0, -12(%ebp)
L8:
	cmpl	$4, -12(%ebp)
	jg	L7
	movl	-12(%ebp), %eax
	leal	0(,%eax,4), %edx
	movl	-60(%ebp), %eax
	addl	%edx, %eax
	movl	(%eax), %eax
	movl	%eax, (%esp)
	movl	$__ZSt4cout, %ecx
	call	__ZNSolsEi
	subl	$4, %esp
	movl	$LC3, 4(%esp)
	movl	%eax, (%esp)
	call	__ZStlsISt11char_traitsIcEERSt13basic_ostreamIcT_ES5_PKc
	addl	$1, -12(%ebp)
	jmp	L8
L7:
	movl	$LC5, 4(%esp)
	movl	$__ZSt4cout, (%esp)
	call	__ZStlsISt11char_traitsIcEERSt13basic_ostreamIcT_ES5_PKc
	movl	$0, -16(%ebp)
L10:
	cmpl	$2, -16(%ebp)
	jg	L9
	movl	-16(%ebp), %eax
	movl	-116(%ebp,%eax,4), %eax
	movl	%eax, (%esp)
	movl	$__ZSt4cout, %ecx
	call	__ZNSolsEi
	subl	$4, %esp
	movl	$LC3, 4(%esp)
	movl	%eax, (%esp)
	call	__ZStlsISt11char_traitsIcEERSt13basic_ostreamIcT_ES5_PKc
	addl	$1, -16(%ebp)
	jmp	L10
L9:
	movl	$__ZSt4endlIcSt11char_traitsIcEERSt13basic_ostreamIT_T0_ES6_, (%esp)
	movl	$__ZSt4cout, %ecx
	call	__ZNSolsEPFRSoS_E
	subl	$4, %esp
	fldl	LC6
	fstpl	(%esp)
	movl	$__ZSt4cout, %ecx
	call	__ZNSolsEd
	subl	$8, %esp
	movl	$__ZSt4endlIcSt11char_traitsIcEERSt13basic_ostreamIT_T0_ES6_, (%esp)
	movl	%eax, %ecx
	call	__ZNSolsEPFRSoS_E
	subl	$4, %esp
	movl	$0, (%esp)
	movl	$__ZSt4cout, %ecx
	call	__ZNSolsEi
	subl	$4, %esp
	movl	$__ZSt4endlIcSt11char_traitsIcEERSt13basic_ostreamIT_T0_ES6_, (%esp)
	movl	%eax, %ecx
	call	__ZNSolsEPFRSoS_E
	subl	$4, %esp
	leal	-132(%ebp), %eax
	movl	%eax, (%esp)
	movl	$__ZSt3cin, %ecx
	call	__ZNSirsERi
	subl	$4, %esp
	movl	-132(%ebp), %eax
	cmpl	$536870911, %eax
	ja	L11
	sall	$2, %eax
	movl	%eax, (%esp)
	call	__Znaj
	jmp	L34
L11:
	call	___cxa_throw_bad_array_new_length
L34:
	movl	%eax, -64(%ebp)
	movl	$0, -20(%ebp)
L16:
	cmpl	$1, -20(%ebp)
	jg	L13
	movl	-132(%ebp), %eax
	cmpl	$536870911, %eax
	ja	L14
	sall	$2, %eax
	movl	-20(%ebp), %edx
	leal	0(,%edx,4), %ecx
	movl	-64(%ebp), %edx
	leal	(%ecx,%edx), %ebx
	movl	%eax, (%esp)
	call	__Znaj
	jmp	L37
L14:
	call	___cxa_throw_bad_array_new_length
L37:
	movl	%eax, (%ebx)
	addl	$1, -20(%ebp)
	jmp	L16
L13:
	movl	$0, -24(%ebp)
L20:
	movl	-132(%ebp), %eax
	cmpl	%eax, -24(%ebp)
	jge	L17
	movl	$0, -28(%ebp)
L19:
	movl	-132(%ebp), %eax
	cmpl	%eax, -28(%ebp)
	jge	L18
	movl	-24(%ebp), %eax
	leal	0(,%eax,4), %edx
	movl	-64(%ebp), %eax
	addl	%edx, %eax
	movl	(%eax), %eax
	movl	-28(%ebp), %edx
	sall	$2, %edx
	addl	%edx, %eax
	movl	%eax, (%esp)
	movl	$__ZSt3cin, %ecx
	call	__ZNSirsERi
	subl	$4, %esp
	addl	$1, -28(%ebp)
	jmp	L19
L18:
	addl	$1, -24(%ebp)
	jmp	L20
L17:
	movl	$0, -32(%ebp)
L24:
	movl	-132(%ebp), %eax
	cmpl	%eax, -32(%ebp)
	jge	L21
	movl	$0, -36(%ebp)
L23:
	movl	-132(%ebp), %eax
	cmpl	%eax, -36(%ebp)
	jge	L22
	movl	-32(%ebp), %eax
	leal	0(,%eax,4), %edx
	movl	-64(%ebp), %eax
	addl	%edx, %eax
	movl	(%eax), %eax
	movl	-36(%ebp), %edx
	sall	$2, %edx
	addl	%edx, %eax
	movl	(%eax), %eax
	movl	%eax, (%esp)
	movl	$__ZSt4cout, %ecx
	call	__ZNSolsEi
	subl	$4, %esp
	movl	$LC3, 4(%esp)
	movl	%eax, (%esp)
	call	__ZStlsISt11char_traitsIcEERSt13basic_ostreamIcT_ES5_PKc
	addl	$1, -36(%ebp)
	jmp	L23
L22:
	movl	$LC5, 4(%esp)
	movl	$__ZSt4cout, (%esp)
	call	__ZStlsISt11char_traitsIcEERSt13basic_ostreamIcT_ES5_PKc
LEHE3:
	addl	$1, -32(%ebp)
	jmp	L24
L21:
	leal	-128(%ebp), %eax
	movl	%eax, %ecx
	call	__ZNSt6vectorIiSaIiEED1Ev
	leal	-92(%ebp), %eax
	movl	%eax, %ecx
	call	__ZNSt7__cxx1112basic_stringIcSt11char_traitsIcESaIcEED1Ev
	movl	$0, %eax
	jmp	L36
L30:
	movl	%eax, %ebx
	leal	-66(%ebp), %eax
	movl	%eax, %ecx
	call	__ZNSaIcED1Ev
	movl	%ebx, %eax
	movl	%eax, (%esp)
LEHB4:
	call	__Unwind_Resume
L32:
	movl	%eax, %ebx
	leal	-65(%ebp), %eax
	movl	%eax, %ecx
	call	__ZNSaIiED1Ev
	jmp	L28
L33:
	movl	%eax, %ebx
	leal	-128(%ebp), %eax
	movl	%eax, %ecx
	call	__ZNSt6vectorIiSaIiEED1Ev
	jmp	L28
L31:
	movl	%eax, %ebx
L28:
	leal	-92(%ebp), %eax
	movl	%eax, %ecx
	call	__ZNSt7__cxx1112basic_stringIcSt11char_traitsIcESaIcEED1Ev
	movl	%ebx, %eax
	movl	%eax, (%esp)
	call	__Unwind_Resume
LEHE4:
L36:
	leal	-8(%ebp), %esp
	popl	%ecx
	.cfi_restore 1
	.cfi_def_cfa 1, 0
	popl	%ebx
	.cfi_restore 3
	popl	%ebp
	.cfi_restore 5
	leal	-4(%ecx), %esp
	.cfi_def_cfa 4, 4
	ret
	.cfi_endproc
LFE7825:
	.def	___gxx_personality_v0;	.scl	2;	.type	32;	.endef
	.section	.gcc_except_table,"w"
LLSDA7825:
	.byte	0xff
	.byte	0xff
	.byte	0x1
	.uleb128 LLSDACSE7825-LLSDACSB7825
LLSDACSB7825:
	.uleb128 LEHB0-LFB7825
	.uleb128 LEHE0-LEHB0
	.uleb128 L30-LFB7825
	.uleb128 0
	.uleb128 LEHB1-LFB7825
	.uleb128 LEHE1-LEHB1
	.uleb128 L31-LFB7825
	.uleb128 0
	.uleb128 LEHB2-LFB7825
	.uleb128 LEHE2-LEHB2
	.uleb128 L32-LFB7825
	.uleb128 0
	.uleb128 LEHB3-LFB7825
	.uleb128 LEHE3-LEHB3
	.uleb128 L33-LFB7825
	.uleb128 0
	.uleb128 LEHB4-LFB7825
	.uleb128 LEHE4-LEHB4
	.uleb128 0
	.uleb128 0
LLSDACSE7825:
	.text
	.section	.text$_ZNSaIiEC1Ev,"x"
	.linkonce discard
	.align 2
	.globl	__ZNSaIiEC1Ev
	.def	__ZNSaIiEC1Ev;	.scl	2;	.type	32;	.endef
__ZNSaIiEC1Ev:
LFB8233:
	.cfi_startproc
	pushl	%ebp
	.cfi_def_cfa_offset 8
	.cfi_offset 5, -8
	movl	%esp, %ebp
	.cfi_def_cfa_register 5
	subl	$24, %esp
	movl	%ecx, -12(%ebp)
	movl	-12(%ebp), %eax
	movl	%eax, %ecx
	call	__ZN9__gnu_cxx13new_allocatorIiEC2Ev
	nop
	leave
	.cfi_restore 5
	.cfi_def_cfa 4, 4
	ret
	.cfi_endproc
LFE8233:
	.section	.text$_ZNSaIiED2Ev,"x"
	.linkonce discard
	.align 2
	.globl	__ZNSaIiED2Ev
	.def	__ZNSaIiED2Ev;	.scl	2;	.type	32;	.endef
__ZNSaIiED2Ev:
LFB8235:
	.cfi_startproc
	pushl	%ebp
	.cfi_def_cfa_offset 8
	.cfi_offset 5, -8
	movl	%esp, %ebp
	.cfi_def_cfa_register 5
	subl	$24, %esp
	movl	%ecx, -12(%ebp)
	movl	-12(%ebp), %eax
	movl	%eax, %ecx
	call	__ZN9__gnu_cxx13new_allocatorIiED2Ev
	nop
	leave
	.cfi_restore 5
	.cfi_def_cfa 4, 4
	ret
	.cfi_endproc
LFE8235:
	.section	.text$_ZNSaIiED1Ev,"x"
	.linkonce discard
	.align 2
	.globl	__ZNSaIiED1Ev
	.def	__ZNSaIiED1Ev;	.scl	2;	.type	32;	.endef
__ZNSaIiED1Ev:
LFB8236:
	.cfi_startproc
	pushl	%ebp
	.cfi_def_cfa_offset 8
	.cfi_offset 5, -8
	movl	%esp, %ebp
	.cfi_def_cfa_register 5
	subl	$24, %esp
	movl	%ecx, -12(%ebp)
	movl	-12(%ebp), %eax
	movl	%eax, %ecx
	call	__ZN9__gnu_cxx13new_allocatorIiED2Ev
	nop
	leave
	.cfi_restore 5
	.cfi_def_cfa 4, 4
	ret
	.cfi_endproc
LFE8236:
	.section	.text$_ZNSt6vectorIiSaIiEEC1EjRKS0_,"x"
	.linkonce discard
	.align 2
	.globl	__ZNSt6vectorIiSaIiEEC1EjRKS0_
	.def	__ZNSt6vectorIiSaIiEEC1EjRKS0_;	.scl	2;	.type	32;	.endef
__ZNSt6vectorIiSaIiEEC1EjRKS0_:
LFB8239:
	.cfi_startproc
	.cfi_personality 0,___gxx_personality_v0
	.cfi_lsda 0,LLSDA8239
	pushl	%ebp
	.cfi_def_cfa_offset 8
	.cfi_offset 5, -8
	movl	%esp, %ebp
	.cfi_def_cfa_register 5
	pushl	%ebx
	subl	$36, %esp
	.cfi_offset 3, -12
	movl	%ecx, -12(%ebp)
	movl	-12(%ebp), %ebx
	movl	12(%ebp), %eax
	movl	%eax, 4(%esp)
	movl	8(%ebp), %eax
	movl	%eax, (%esp)
LEHB5:
	call	__ZNSt6vectorIiSaIiEE17_S_check_init_lenEjRKS0_
	movl	12(%ebp), %edx
	movl	%edx, 4(%esp)
	movl	%eax, (%esp)
	movl	%ebx, %ecx
	call	__ZNSt12_Vector_baseIiSaIiEEC2EjRKS0_
LEHE5:
	subl	$8, %esp
	movl	-12(%ebp), %eax
	movl	8(%ebp), %edx
	movl	%edx, (%esp)
	movl	%eax, %ecx
LEHB6:
	call	__ZNSt6vectorIiSaIiEE21_M_default_initializeEj
LEHE6:
	subl	$4, %esp
	jmp	L44
L43:
	movl	%eax, %ebx
	movl	-12(%ebp), %eax
	movl	%eax, %ecx
	call	__ZNSt12_Vector_baseIiSaIiEED2Ev
	movl	%ebx, %eax
	movl	%eax, (%esp)
LEHB7:
	call	__Unwind_Resume
LEHE7:
L44:
	movl	-4(%ebp), %ebx
	leave
	.cfi_restore 5
	.cfi_restore 3
	.cfi_def_cfa 4, 4
	ret	$8
	.cfi_endproc
LFE8239:
	.section	.gcc_except_table,"w"
LLSDA8239:
	.byte	0xff
	.byte	0xff
	.byte	0x1
	.uleb128 LLSDACSE8239-LLSDACSB8239
LLSDACSB8239:
	.uleb128 LEHB5-LFB8239
	.uleb128 LEHE5-LEHB5
	.uleb128 0
	.uleb128 0
	.uleb128 LEHB6-LFB8239
	.uleb128 LEHE6-LEHB6
	.uleb128 L43-LFB8239
	.uleb128 0
	.uleb128 LEHB7-LFB8239
	.uleb128 LEHE7-LEHB7
	.uleb128 0
	.uleb128 0
LLSDACSE8239:
	.section	.text$_ZNSt6vectorIiSaIiEEC1EjRKS0_,"x"
	.linkonce discard
	.section	.text$_ZNSt6vectorIiSaIiEED1Ev,"x"
	.linkonce discard
	.align 2
	.globl	__ZNSt6vectorIiSaIiEED1Ev
	.def	__ZNSt6vectorIiSaIiEED1Ev;	.scl	2;	.type	32;	.endef
__ZNSt6vectorIiSaIiEED1Ev:
LFB8242:
	.cfi_startproc
	.cfi_personality 0,___gxx_personality_v0
	.cfi_lsda 0,LLSDA8242
	pushl	%ebp
	.cfi_def_cfa_offset 8
	.cfi_offset 5, -8
	movl	%esp, %ebp
	.cfi_def_cfa_register 5
	subl	$40, %esp
	movl	%ecx, -12(%ebp)
	movl	-12(%ebp), %eax
	movl	%eax, %ecx
	call	__ZNSt12_Vector_baseIiSaIiEE19_M_get_Tp_allocatorEv
	movl	-12(%ebp), %edx
	movl	4(%edx), %ecx
	movl	-12(%ebp), %edx
	movl	(%edx), %edx
	movl	%eax, 8(%esp)
	movl	%ecx, 4(%esp)
	movl	%edx, (%esp)
	call	__ZSt8_DestroyIPiiEvT_S1_RSaIT0_E
	movl	-12(%ebp), %eax
	movl	%eax, %ecx
	call	__ZNSt12_Vector_baseIiSaIiEED2Ev
	nop
	leave
	.cfi_restore 5
	.cfi_def_cfa 4, 4
	ret
	.cfi_endproc
LFE8242:
	.section	.gcc_except_table,"w"
LLSDA8242:
	.byte	0xff
	.byte	0xff
	.byte	0x1
	.uleb128 LLSDACSE8242-LLSDACSB8242
LLSDACSB8242:
LLSDACSE8242:
	.section	.text$_ZNSt6vectorIiSaIiEED1Ev,"x"
	.linkonce discard
	.section	.text$_ZNSt6vectorIiSaIiEEixEj,"x"
	.linkonce discard
	.align 2
	.globl	__ZNSt6vectorIiSaIiEEixEj
	.def	__ZNSt6vectorIiSaIiEEixEj;	.scl	2;	.type	32;	.endef
__ZNSt6vectorIiSaIiEEixEj:
LFB8243:
	.cfi_startproc
	pushl	%ebp
	.cfi_def_cfa_offset 8
	.cfi_offset 5, -8
	movl	%esp, %ebp
	.cfi_def_cfa_register 5
	subl	$4, %esp
	movl	%ecx, -4(%ebp)
	movl	-4(%ebp), %eax
	movl	(%eax), %eax
	movl	8(%ebp), %edx
	sall	$2, %edx
	addl	%edx, %eax
	leave
	.cfi_restore 5
	.cfi_def_cfa 4, 4
	ret	$4
	.cfi_endproc
LFE8243:
	.section	.text$_ZN9__gnu_cxx13new_allocatorIiEC2Ev,"x"
	.linkonce discard
	.align 2
	.globl	__ZN9__gnu_cxx13new_allocatorIiEC2Ev
	.def	__ZN9__gnu_cxx13new_allocatorIiEC2Ev;	.scl	2;	.type	32;	.endef
__ZN9__gnu_cxx13new_allocatorIiEC2Ev:
LFB8385:
	.cfi_startproc
	pushl	%ebp
	.cfi_def_cfa_offset 8
	.cfi_offset 5, -8
	movl	%esp, %ebp
	.cfi_def_cfa_register 5
	subl	$4, %esp
	movl	%ecx, -4(%ebp)
	nop
	leave
	.cfi_restore 5
	.cfi_def_cfa 4, 4
	ret
	.cfi_endproc
LFE8385:
	.section	.text$_ZN9__gnu_cxx13new_allocatorIiED2Ev,"x"
	.linkonce discard
	.align 2
	.globl	__ZN9__gnu_cxx13new_allocatorIiED2Ev
	.def	__ZN9__gnu_cxx13new_allocatorIiED2Ev;	.scl	2;	.type	32;	.endef
__ZN9__gnu_cxx13new_allocatorIiED2Ev:
LFB8388:
	.cfi_startproc
	pushl	%ebp
	.cfi_def_cfa_offset 8
	.cfi_offset 5, -8
	movl	%esp, %ebp
	.cfi_def_cfa_register 5
	subl	$4, %esp
	movl	%ecx, -4(%ebp)
	nop
	leave
	.cfi_restore 5
	.cfi_def_cfa 4, 4
	ret
	.cfi_endproc
LFE8388:
	.section .rdata,"dr"
	.align 4
LC7:
	.ascii "cannot create std::vector larger than max_size()\0"
	.section	.text$_ZNSt6vectorIiSaIiEE17_S_check_init_lenEjRKS0_,"x"
	.linkonce discard
	.globl	__ZNSt6vectorIiSaIiEE17_S_check_init_lenEjRKS0_
	.def	__ZNSt6vectorIiSaIiEE17_S_check_init_lenEjRKS0_;	.scl	2;	.type	32;	.endef
__ZNSt6vectorIiSaIiEE17_S_check_init_lenEjRKS0_:
LFB8390:
	.cfi_startproc
	pushl	%ebp
	.cfi_def_cfa_offset 8
	.cfi_offset 5, -8
	movl	%esp, %ebp
	.cfi_def_cfa_register 5
	pushl	%ebx
	subl	$36, %esp
	.cfi_offset 3, -12
	leal	-9(%ebp), %eax
	movl	12(%ebp), %edx
	movl	%edx, (%esp)
	movl	%eax, %ecx
	call	__ZNSaIiEC1ERKS_
	subl	$4, %esp
	leal	-9(%ebp), %eax
	movl	%eax, (%esp)
	call	__ZNSt6vectorIiSaIiEE11_S_max_sizeERKS0_
	cmpl	%eax, 8(%ebp)
	seta	%bl
	leal	-9(%ebp), %eax
	movl	%eax, %ecx
	call	__ZNSaIiED1Ev
	testb	%bl, %bl
	je	L51
	movl	$LC7, (%esp)
	call	__ZSt20__throw_length_errorPKc
L51:
	movl	8(%ebp), %eax
	movl	-4(%ebp), %ebx
	leave
	.cfi_restore 5
	.cfi_restore 3
	.cfi_def_cfa 4, 4
	ret
	.cfi_endproc
LFE8390:
	.section	.text$_ZNSt12_Vector_baseIiSaIiEE12_Vector_implD1Ev,"x"
	.linkonce discard
	.align 2
	.globl	__ZNSt12_Vector_baseIiSaIiEE12_Vector_implD1Ev
	.def	__ZNSt12_Vector_baseIiSaIiEE12_Vector_implD1Ev;	.scl	2;	.type	32;	.endef
__ZNSt12_Vector_baseIiSaIiEE12_Vector_implD1Ev:
LFB8394:
	.cfi_startproc
	pushl	%ebp
	.cfi_def_cfa_offset 8
	.cfi_offset 5, -8
	movl	%esp, %ebp
	.cfi_def_cfa_register 5
	subl	$24, %esp
	movl	%ecx, -12(%ebp)
	movl	-12(%ebp), %eax
	movl	%eax, %ecx
	call	__ZNSaIiED2Ev
	nop
	leave
	.cfi_restore 5
	.cfi_def_cfa 4, 4
	ret
	.cfi_endproc
LFE8394:
	.section	.text$_ZNSt12_Vector_baseIiSaIiEEC2EjRKS0_,"x"
	.linkonce discard
	.align 2
	.globl	__ZNSt12_Vector_baseIiSaIiEEC2EjRKS0_
	.def	__ZNSt12_Vector_baseIiSaIiEEC2EjRKS0_;	.scl	2;	.type	32;	.endef
__ZNSt12_Vector_baseIiSaIiEEC2EjRKS0_:
LFB8395:
	.cfi_startproc
	.cfi_personality 0,___gxx_personality_v0
	.cfi_lsda 0,LLSDA8395
	pushl	%ebp
	.cfi_def_cfa_offset 8
	.cfi_offset 5, -8
	movl	%esp, %ebp
	.cfi_def_cfa_register 5
	pushl	%ebx
	subl	$36, %esp
	.cfi_offset 3, -12
	movl	%ecx, -12(%ebp)
	movl	-12(%ebp), %eax
	movl	12(%ebp), %edx
	movl	%edx, (%esp)
	movl	%eax, %ecx
	call	__ZNSt12_Vector_baseIiSaIiEE12_Vector_implC1ERKS0_
	subl	$4, %esp
	movl	-12(%ebp), %eax
	movl	8(%ebp), %edx
	movl	%edx, (%esp)
	movl	%eax, %ecx
LEHB8:
	call	__ZNSt12_Vector_baseIiSaIiEE17_M_create_storageEj
LEHE8:
	subl	$4, %esp
	jmp	L57
L56:
	movl	%eax, %ebx
	movl	-12(%ebp), %eax
	movl	%eax, %ecx
	call	__ZNSt12_Vector_baseIiSaIiEE12_Vector_implD1Ev
	movl	%ebx, %eax
	movl	%eax, (%esp)
LEHB9:
	call	__Unwind_Resume
LEHE9:
L57:
	movl	-4(%ebp), %ebx
	leave
	.cfi_restore 5
	.cfi_restore 3
	.cfi_def_cfa 4, 4
	ret	$8
	.cfi_endproc
LFE8395:
	.section	.gcc_except_table,"w"
LLSDA8395:
	.byte	0xff
	.byte	0xff
	.byte	0x1
	.uleb128 LLSDACSE8395-LLSDACSB8395
LLSDACSB8395:
	.uleb128 LEHB8-LFB8395
	.uleb128 LEHE8-LEHB8
	.uleb128 L56-LFB8395
	.uleb128 0
	.uleb128 LEHB9-LFB8395
	.uleb128 LEHE9-LEHB9
	.uleb128 0
	.uleb128 0
LLSDACSE8395:
	.section	.text$_ZNSt12_Vector_baseIiSaIiEEC2EjRKS0_,"x"
	.linkonce discard
	.section	.text$_ZNSt12_Vector_baseIiSaIiEED2Ev,"x"
	.linkonce discard
	.align 2
	.globl	__ZNSt12_Vector_baseIiSaIiEED2Ev
	.def	__ZNSt12_Vector_baseIiSaIiEED2Ev;	.scl	2;	.type	32;	.endef
__ZNSt12_Vector_baseIiSaIiEED2Ev:
LFB8398:
	.cfi_startproc
	.cfi_personality 0,___gxx_personality_v0
	.cfi_lsda 0,LLSDA8398
	pushl	%ebp
	.cfi_def_cfa_offset 8
	.cfi_offset 5, -8
	movl	%esp, %ebp
	.cfi_def_cfa_register 5
	subl	$40, %esp
	movl	%ecx, -12(%ebp)
	movl	-12(%ebp), %eax
	movl	8(%eax), %edx
	movl	-12(%ebp), %eax
	movl	(%eax), %eax
	subl	%eax, %edx
	movl	%edx, %eax
	sarl	$2, %eax
	movl	%eax, %ecx
	movl	-12(%ebp), %eax
	movl	(%eax), %edx
	movl	-12(%ebp), %eax
	movl	%ecx, 4(%esp)
	movl	%edx, (%esp)
	movl	%eax, %ecx
	call	__ZNSt12_Vector_baseIiSaIiEE13_M_deallocateEPij
	subl	$8, %esp
	movl	-12(%ebp), %eax
	movl	%eax, %ecx
	call	__ZNSt12_Vector_baseIiSaIiEE12_Vector_implD1Ev
	nop
	leave
	.cfi_restore 5
	.cfi_def_cfa 4, 4
	ret
	.cfi_endproc
LFE8398:
	.section	.gcc_except_table,"w"
LLSDA8398:
	.byte	0xff
	.byte	0xff
	.byte	0x1
	.uleb128 LLSDACSE8398-LLSDACSB8398
LLSDACSB8398:
LLSDACSE8398:
	.section	.text$_ZNSt12_Vector_baseIiSaIiEED2Ev,"x"
	.linkonce discard
	.section	.text$_ZNSt6vectorIiSaIiEE21_M_default_initializeEj,"x"
	.linkonce discard
	.align 2
	.globl	__ZNSt6vectorIiSaIiEE21_M_default_initializeEj
	.def	__ZNSt6vectorIiSaIiEE21_M_default_initializeEj;	.scl	2;	.type	32;	.endef
__ZNSt6vectorIiSaIiEE21_M_default_initializeEj:
LFB8400:
	.cfi_startproc
	pushl	%ebp
	.cfi_def_cfa_offset 8
	.cfi_offset 5, -8
	movl	%esp, %ebp
	.cfi_def_cfa_register 5
	subl	$40, %esp
	movl	%ecx, -12(%ebp)
	movl	-12(%ebp), %eax
	movl	%eax, %ecx
	call	__ZNSt12_Vector_baseIiSaIiEE19_M_get_Tp_allocatorEv
	movl	-12(%ebp), %edx
	movl	(%edx), %edx
	movl	%eax, 8(%esp)
	movl	8(%ebp), %eax
	movl	%eax, 4(%esp)
	movl	%edx, (%esp)
	call	__ZSt27__uninitialized_default_n_aIPijiET_S1_T0_RSaIT1_E
	movl	-12(%ebp), %edx
	movl	%eax, 4(%edx)
	nop
	leave
	.cfi_restore 5
	.cfi_def_cfa 4, 4
	ret	$4
	.cfi_endproc
LFE8400:
	.section	.text$_ZNSt12_Vector_baseIiSaIiEE19_M_get_Tp_allocatorEv,"x"
	.linkonce discard
	.align 2
	.globl	__ZNSt12_Vector_baseIiSaIiEE19_M_get_Tp_allocatorEv
	.def	__ZNSt12_Vector_baseIiSaIiEE19_M_get_Tp_allocatorEv;	.scl	2;	.type	32;	.endef
__ZNSt12_Vector_baseIiSaIiEE19_M_get_Tp_allocatorEv:
LFB8401:
	.cfi_startproc
	pushl	%ebp
	.cfi_def_cfa_offset 8
	.cfi_offset 5, -8
	movl	%esp, %ebp
	.cfi_def_cfa_register 5
	subl	$4, %esp
	movl	%ecx, -4(%ebp)
	movl	-4(%ebp), %eax
	leave
	.cfi_restore 5
	.cfi_def_cfa 4, 4
	ret
	.cfi_endproc
LFE8401:
	.section	.text$_ZSt8_DestroyIPiiEvT_S1_RSaIT0_E,"x"
	.linkonce discard
	.globl	__ZSt8_DestroyIPiiEvT_S1_RSaIT0_E
	.def	__ZSt8_DestroyIPiiEvT_S1_RSaIT0_E;	.scl	2;	.type	32;	.endef
__ZSt8_DestroyIPiiEvT_S1_RSaIT0_E:
LFB8402:
	.cfi_startproc
	pushl	%ebp
	.cfi_def_cfa_offset 8
	.cfi_offset 5, -8
	movl	%esp, %ebp
	.cfi_def_cfa_register 5
	subl	$24, %esp
	movl	12(%ebp), %eax
	movl	%eax, 4(%esp)
	movl	8(%ebp), %eax
	movl	%eax, (%esp)
	call	__ZSt8_DestroyIPiEvT_S1_
	nop
	leave
	.cfi_restore 5
	.cfi_def_cfa 4, 4
	ret
	.cfi_endproc
LFE8402:
	.section	.text$_ZNSt6vectorIiSaIiEE11_S_max_sizeERKS0_,"x"
	.linkonce discard
	.globl	__ZNSt6vectorIiSaIiEE11_S_max_sizeERKS0_
	.def	__ZNSt6vectorIiSaIiEE11_S_max_sizeERKS0_;	.scl	2;	.type	32;	.endef
__ZNSt6vectorIiSaIiEE11_S_max_sizeERKS0_:
LFB8448:
	.cfi_startproc
	pushl	%ebp
	.cfi_def_cfa_offset 8
	.cfi_offset 5, -8
	movl	%esp, %ebp
	.cfi_def_cfa_register 5
	subl	$40, %esp
	movl	$536870911, -12(%ebp)
	movl	8(%ebp), %eax
	movl	%eax, (%esp)
	call	__ZNSt16allocator_traitsISaIiEE8max_sizeERKS0_
	movl	%eax, -16(%ebp)
	leal	-16(%ebp), %eax
	movl	%eax, 4(%esp)
	leal	-12(%ebp), %eax
	movl	%eax, (%esp)
	call	__ZSt3minIjERKT_S2_S2_
	movl	(%eax), %eax
	leave
	.cfi_restore 5
	.cfi_def_cfa 4, 4
	ret
	.cfi_endproc
LFE8448:
	.section	.text$_ZNSaIiEC2ERKS_,"x"
	.linkonce discard
	.align 2
	.globl	__ZNSaIiEC2ERKS_
	.def	__ZNSaIiEC2ERKS_;	.scl	2;	.type	32;	.endef
__ZNSaIiEC2ERKS_:
LFB8450:
	.cfi_startproc
	pushl	%ebp
	.cfi_def_cfa_offset 8
	.cfi_offset 5, -8
	movl	%esp, %ebp
	.cfi_def_cfa_register 5
	subl	$40, %esp
	movl	%ecx, -12(%ebp)
	movl	-12(%ebp), %eax
	movl	8(%ebp), %edx
	movl	%edx, (%esp)
	movl	%eax, %ecx
	call	__ZN9__gnu_cxx13new_allocatorIiEC2ERKS1_
	subl	$4, %esp
	nop
	leave
	.cfi_restore 5
	.cfi_def_cfa 4, 4
	ret	$4
	.cfi_endproc
LFE8450:
	.section	.text$_ZNSaIiEC1ERKS_,"x"
	.linkonce discard
	.align 2
	.globl	__ZNSaIiEC1ERKS_
	.def	__ZNSaIiEC1ERKS_;	.scl	2;	.type	32;	.endef
__ZNSaIiEC1ERKS_:
LFB8451:
	.cfi_startproc
	pushl	%ebp
	.cfi_def_cfa_offset 8
	.cfi_offset 5, -8
	movl	%esp, %ebp
	.cfi_def_cfa_register 5
	subl	$40, %esp
	movl	%ecx, -12(%ebp)
	movl	-12(%ebp), %eax
	movl	8(%ebp), %edx
	movl	%edx, (%esp)
	movl	%eax, %ecx
	call	__ZN9__gnu_cxx13new_allocatorIiEC2ERKS1_
	subl	$4, %esp
	nop
	leave
	.cfi_restore 5
	.cfi_def_cfa 4, 4
	ret	$4
	.cfi_endproc
LFE8451:
	.section	.text$_ZNSt12_Vector_baseIiSaIiEE12_Vector_implC1ERKS0_,"x"
	.linkonce discard
	.align 2
	.globl	__ZNSt12_Vector_baseIiSaIiEE12_Vector_implC1ERKS0_
	.def	__ZNSt12_Vector_baseIiSaIiEE12_Vector_implC1ERKS0_;	.scl	2;	.type	32;	.endef
__ZNSt12_Vector_baseIiSaIiEE12_Vector_implC1ERKS0_:
LFB8454:
	.cfi_startproc
	pushl	%ebp
	.cfi_def_cfa_offset 8
	.cfi_offset 5, -8
	movl	%esp, %ebp
	.cfi_def_cfa_register 5
	subl	$40, %esp
	movl	%ecx, -12(%ebp)
	movl	-12(%ebp), %eax
	movl	8(%ebp), %edx
	movl	%edx, (%esp)
	movl	%eax, %ecx
	call	__ZNSaIiEC2ERKS_
	subl	$4, %esp
	movl	-12(%ebp), %eax
	movl	%eax, %ecx
	call	__ZNSt12_Vector_baseIiSaIiEE17_Vector_impl_dataC2Ev
	nop
	leave
	.cfi_restore 5
	.cfi_def_cfa 4, 4
	ret	$4
	.cfi_endproc
LFE8454:
	.section	.text$_ZNSt12_Vector_baseIiSaIiEE17_M_create_storageEj,"x"
	.linkonce discard
	.align 2
	.globl	__ZNSt12_Vector_baseIiSaIiEE17_M_create_storageEj
	.def	__ZNSt12_Vector_baseIiSaIiEE17_M_create_storageEj;	.scl	2;	.type	32;	.endef
__ZNSt12_Vector_baseIiSaIiEE17_M_create_storageEj:
LFB8455:
	.cfi_startproc
	pushl	%ebp
	.cfi_def_cfa_offset 8
	.cfi_offset 5, -8
	movl	%esp, %ebp
	.cfi_def_cfa_register 5
	subl	$40, %esp
	movl	%ecx, -12(%ebp)
	movl	-12(%ebp), %eax
	movl	8(%ebp), %edx
	movl	%edx, (%esp)
	movl	%eax, %ecx
	call	__ZNSt12_Vector_baseIiSaIiEE11_M_allocateEj
	subl	$4, %esp
	movl	-12(%ebp), %edx
	movl	%eax, (%edx)
	movl	-12(%ebp), %eax
	movl	(%eax), %edx
	movl	-12(%ebp), %eax
	movl	%edx, 4(%eax)
	movl	-12(%ebp), %eax
	movl	(%eax), %eax
	movl	8(%ebp), %edx
	sall	$2, %edx
	addl	%eax, %edx
	movl	-12(%ebp), %eax
	movl	%edx, 8(%eax)
	nop
	leave
	.cfi_restore 5
	.cfi_def_cfa 4, 4
	ret	$4
	.cfi_endproc
LFE8455:
	.section	.text$_ZNSt12_Vector_baseIiSaIiEE13_M_deallocateEPij,"x"
	.linkonce discard
	.align 2
	.globl	__ZNSt12_Vector_baseIiSaIiEE13_M_deallocateEPij
	.def	__ZNSt12_Vector_baseIiSaIiEE13_M_deallocateEPij;	.scl	2;	.type	32;	.endef
__ZNSt12_Vector_baseIiSaIiEE13_M_deallocateEPij:
LFB8456:
	.cfi_startproc
	pushl	%ebp
	.cfi_def_cfa_offset 8
	.cfi_offset 5, -8
	movl	%esp, %ebp
	.cfi_def_cfa_register 5
	subl	$40, %esp
	movl	%ecx, -12(%ebp)
	cmpl	$0, 8(%ebp)
	je	L71
	movl	-12(%ebp), %eax
	movl	12(%ebp), %edx
	movl	%edx, 8(%esp)
	movl	8(%ebp), %edx
	movl	%edx, 4(%esp)
	movl	%eax, (%esp)
	call	__ZNSt16allocator_traitsISaIiEE10deallocateERS0_Pij
L71:
	nop
	leave
	.cfi_restore 5
	.cfi_def_cfa 4, 4
	ret	$8
	.cfi_endproc
LFE8456:
	.section	.text$_ZSt27__uninitialized_default_n_aIPijiET_S1_T0_RSaIT1_E,"x"
	.linkonce discard
	.globl	__ZSt27__uninitialized_default_n_aIPijiET_S1_T0_RSaIT1_E
	.def	__ZSt27__uninitialized_default_n_aIPijiET_S1_T0_RSaIT1_E;	.scl	2;	.type	32;	.endef
__ZSt27__uninitialized_default_n_aIPijiET_S1_T0_RSaIT1_E:
LFB8457:
	.cfi_startproc
	pushl	%ebp
	.cfi_def_cfa_offset 8
	.cfi_offset 5, -8
	movl	%esp, %ebp
	.cfi_def_cfa_register 5
	subl	$24, %esp
	movl	12(%ebp), %eax
	movl	%eax, 4(%esp)
	movl	8(%ebp), %eax
	movl	%eax, (%esp)
	call	__ZSt25__uninitialized_default_nIPijET_S1_T0_
	leave
	.cfi_restore 5
	.cfi_def_cfa 4, 4
	ret
	.cfi_endproc
LFE8457:
	.section	.text$_ZSt8_DestroyIPiEvT_S1_,"x"
	.linkonce discard
	.globl	__ZSt8_DestroyIPiEvT_S1_
	.def	__ZSt8_DestroyIPiEvT_S1_;	.scl	2;	.type	32;	.endef
__ZSt8_DestroyIPiEvT_S1_:
LFB8458:
	.cfi_startproc
	pushl	%ebp
	.cfi_def_cfa_offset 8
	.cfi_offset 5, -8
	movl	%esp, %ebp
	.cfi_def_cfa_register 5
	subl	$24, %esp
	movl	12(%ebp), %eax
	movl	%eax, 4(%esp)
	movl	8(%ebp), %eax
	movl	%eax, (%esp)
	call	__ZNSt12_Destroy_auxILb1EE9__destroyIPiEEvT_S3_
	nop
	leave
	.cfi_restore 5
	.cfi_def_cfa 4, 4
	ret
	.cfi_endproc
LFE8458:
	.section	.text$_ZNSt16allocator_traitsISaIiEE8max_sizeERKS0_,"x"
	.linkonce discard
	.globl	__ZNSt16allocator_traitsISaIiEE8max_sizeERKS0_
	.def	__ZNSt16allocator_traitsISaIiEE8max_sizeERKS0_;	.scl	2;	.type	32;	.endef
__ZNSt16allocator_traitsISaIiEE8max_sizeERKS0_:
LFB8494:
	.cfi_startproc
	pushl	%ebp
	.cfi_def_cfa_offset 8
	.cfi_offset 5, -8
	movl	%esp, %ebp
	.cfi_def_cfa_register 5
	subl	$8, %esp
	movl	8(%ebp), %ecx
	call	__ZNK9__gnu_cxx13new_allocatorIiE8max_sizeEv
	leave
	.cfi_restore 5
	.cfi_def_cfa 4, 4
	ret
	.cfi_endproc
LFE8494:
	.section	.text$_ZN9__gnu_cxx13new_allocatorIiEC2ERKS1_,"x"
	.linkonce discard
	.align 2
	.globl	__ZN9__gnu_cxx13new_allocatorIiEC2ERKS1_
	.def	__ZN9__gnu_cxx13new_allocatorIiEC2ERKS1_;	.scl	2;	.type	32;	.endef
__ZN9__gnu_cxx13new_allocatorIiEC2ERKS1_:
LFB8496:
	.cfi_startproc
	pushl	%ebp
	.cfi_def_cfa_offset 8
	.cfi_offset 5, -8
	movl	%esp, %ebp
	.cfi_def_cfa_register 5
	subl	$4, %esp
	movl	%ecx, -4(%ebp)
	nop
	leave
	.cfi_restore 5
	.cfi_def_cfa 4, 4
	ret	$4
	.cfi_endproc
LFE8496:
	.section	.text$_ZNSt12_Vector_baseIiSaIiEE17_Vector_impl_dataC2Ev,"x"
	.linkonce discard
	.align 2
	.globl	__ZNSt12_Vector_baseIiSaIiEE17_Vector_impl_dataC2Ev
	.def	__ZNSt12_Vector_baseIiSaIiEE17_Vector_impl_dataC2Ev;	.scl	2;	.type	32;	.endef
__ZNSt12_Vector_baseIiSaIiEE17_Vector_impl_dataC2Ev:
LFB8499:
	.cfi_startproc
	pushl	%ebp
	.cfi_def_cfa_offset 8
	.cfi_offset 5, -8
	movl	%esp, %ebp
	.cfi_def_cfa_register 5
	subl	$4, %esp
	movl	%ecx, -4(%ebp)
	movl	-4(%ebp), %eax
	movl	$0, (%eax)
	movl	-4(%ebp), %eax
	movl	$0, 4(%eax)
	movl	-4(%ebp), %eax
	movl	$0, 8(%eax)
	nop
	leave
	.cfi_restore 5
	.cfi_def_cfa 4, 4
	ret
	.cfi_endproc
LFE8499:
	.section	.text$_ZNSt12_Vector_baseIiSaIiEE11_M_allocateEj,"x"
	.linkonce discard
	.align 2
	.globl	__ZNSt12_Vector_baseIiSaIiEE11_M_allocateEj
	.def	__ZNSt12_Vector_baseIiSaIiEE11_M_allocateEj;	.scl	2;	.type	32;	.endef
__ZNSt12_Vector_baseIiSaIiEE11_M_allocateEj:
LFB8501:
	.cfi_startproc
	pushl	%ebp
	.cfi_def_cfa_offset 8
	.cfi_offset 5, -8
	movl	%esp, %ebp
	.cfi_def_cfa_register 5
	subl	$40, %esp
	movl	%ecx, -12(%ebp)
	cmpl	$0, 8(%ebp)
	je	L80
	movl	-12(%ebp), %eax
	movl	8(%ebp), %edx
	movl	%edx, 4(%esp)
	movl	%eax, (%esp)
	call	__ZNSt16allocator_traitsISaIiEE8allocateERS0_j
	jmp	L82
L80:
	movl	$0, %eax
L82:
	leave
	.cfi_restore 5
	.cfi_def_cfa 4, 4
	ret	$4
	.cfi_endproc
LFE8501:
	.section	.text$_ZNSt16allocator_traitsISaIiEE10deallocateERS0_Pij,"x"
	.linkonce discard
	.globl	__ZNSt16allocator_traitsISaIiEE10deallocateERS0_Pij
	.def	__ZNSt16allocator_traitsISaIiEE10deallocateERS0_Pij;	.scl	2;	.type	32;	.endef
__ZNSt16allocator_traitsISaIiEE10deallocateERS0_Pij:
LFB8502:
	.cfi_startproc
	pushl	%ebp
	.cfi_def_cfa_offset 8
	.cfi_offset 5, -8
	movl	%esp, %ebp
	.cfi_def_cfa_register 5
	subl	$24, %esp
	movl	16(%ebp), %eax
	movl	%eax, 4(%esp)
	movl	12(%ebp), %eax
	movl	%eax, (%esp)
	movl	8(%ebp), %ecx
	call	__ZN9__gnu_cxx13new_allocatorIiE10deallocateEPij
	subl	$8, %esp
	nop
	leave
	.cfi_restore 5
	.cfi_def_cfa 4, 4
	ret
	.cfi_endproc
LFE8502:
	.section	.text$_ZSt25__uninitialized_default_nIPijET_S1_T0_,"x"
	.linkonce discard
	.globl	__ZSt25__uninitialized_default_nIPijET_S1_T0_
	.def	__ZSt25__uninitialized_default_nIPijET_S1_T0_;	.scl	2;	.type	32;	.endef
__ZSt25__uninitialized_default_nIPijET_S1_T0_:
LFB8503:
	.cfi_startproc
	pushl	%ebp
	.cfi_def_cfa_offset 8
	.cfi_offset 5, -8
	movl	%esp, %ebp
	.cfi_def_cfa_register 5
	subl	$40, %esp
	movb	$1, -9(%ebp)
	movl	12(%ebp), %eax
	movl	%eax, 4(%esp)
	movl	8(%ebp), %eax
	movl	%eax, (%esp)
	call	__ZNSt27__uninitialized_default_n_1ILb1EE18__uninit_default_nIPijEET_S3_T0_
	leave
	.cfi_restore 5
	.cfi_def_cfa 4, 4
	ret
	.cfi_endproc
LFE8503:
	.section	.text$_ZNSt12_Destroy_auxILb1EE9__destroyIPiEEvT_S3_,"x"
	.linkonce discard
	.globl	__ZNSt12_Destroy_auxILb1EE9__destroyIPiEEvT_S3_
	.def	__ZNSt12_Destroy_auxILb1EE9__destroyIPiEEvT_S3_;	.scl	2;	.type	32;	.endef
__ZNSt12_Destroy_auxILb1EE9__destroyIPiEEvT_S3_:
LFB8504:
	.cfi_startproc
	pushl	%ebp
	.cfi_def_cfa_offset 8
	.cfi_offset 5, -8
	movl	%esp, %ebp
	.cfi_def_cfa_register 5
	nop
	popl	%ebp
	.cfi_restore 5
	.cfi_def_cfa 4, 4
	ret
	.cfi_endproc
LFE8504:
	.section	.text$_ZNK9__gnu_cxx13new_allocatorIiE8max_sizeEv,"x"
	.linkonce discard
	.align 2
	.globl	__ZNK9__gnu_cxx13new_allocatorIiE8max_sizeEv
	.def	__ZNK9__gnu_cxx13new_allocatorIiE8max_sizeEv;	.scl	2;	.type	32;	.endef
__ZNK9__gnu_cxx13new_allocatorIiE8max_sizeEv:
LFB8533:
	.cfi_startproc
	pushl	%ebp
	.cfi_def_cfa_offset 8
	.cfi_offset 5, -8
	movl	%esp, %ebp
	.cfi_def_cfa_register 5
	subl	$4, %esp
	movl	%ecx, -4(%ebp)
	movl	$536870911, %eax
	leave
	.cfi_restore 5
	.cfi_def_cfa 4, 4
	ret
	.cfi_endproc
LFE8533:
	.section	.text$_ZNSt16allocator_traitsISaIiEE8allocateERS0_j,"x"
	.linkonce discard
	.globl	__ZNSt16allocator_traitsISaIiEE8allocateERS0_j
	.def	__ZNSt16allocator_traitsISaIiEE8allocateERS0_j;	.scl	2;	.type	32;	.endef
__ZNSt16allocator_traitsISaIiEE8allocateERS0_j:
LFB8534:
	.cfi_startproc
	pushl	%ebp
	.cfi_def_cfa_offset 8
	.cfi_offset 5, -8
	movl	%esp, %ebp
	.cfi_def_cfa_register 5
	subl	$24, %esp
	movl	$0, 4(%esp)
	movl	12(%ebp), %eax
	movl	%eax, (%esp)
	movl	8(%ebp), %ecx
	call	__ZN9__gnu_cxx13new_allocatorIiE8allocateEjPKv
	subl	$8, %esp
	leave
	.cfi_restore 5
	.cfi_def_cfa 4, 4
	ret
	.cfi_endproc
LFE8534:
	.section	.text$_ZN9__gnu_cxx13new_allocatorIiE10deallocateEPij,"x"
	.linkonce discard
	.align 2
	.globl	__ZN9__gnu_cxx13new_allocatorIiE10deallocateEPij
	.def	__ZN9__gnu_cxx13new_allocatorIiE10deallocateEPij;	.scl	2;	.type	32;	.endef
__ZN9__gnu_cxx13new_allocatorIiE10deallocateEPij:
LFB8535:
	.cfi_startproc
	pushl	%ebp
	.cfi_def_cfa_offset 8
	.cfi_offset 5, -8
	movl	%esp, %ebp
	.cfi_def_cfa_register 5
	subl	$40, %esp
	movl	%ecx, -12(%ebp)
	movl	8(%ebp), %eax
	movl	%eax, (%esp)
	call	__ZdlPv
	nop
	leave
	.cfi_restore 5
	.cfi_def_cfa 4, 4
	ret	$8
	.cfi_endproc
LFE8535:
	.section	.text$_ZNSt27__uninitialized_default_n_1ILb1EE18__uninit_default_nIPijEET_S3_T0_,"x"
	.linkonce discard
	.globl	__ZNSt27__uninitialized_default_n_1ILb1EE18__uninit_default_nIPijEET_S3_T0_
	.def	__ZNSt27__uninitialized_default_n_1ILb1EE18__uninit_default_nIPijEET_S3_T0_;	.scl	2;	.type	32;	.endef
__ZNSt27__uninitialized_default_n_1ILb1EE18__uninit_default_nIPijEET_S3_T0_:
LFB8536:
	.cfi_startproc
	pushl	%ebp
	.cfi_def_cfa_offset 8
	.cfi_offset 5, -8
	movl	%esp, %ebp
	.cfi_def_cfa_register 5
	subl	$40, %esp
	movl	$0, -12(%ebp)
	leal	-12(%ebp), %eax
	movl	%eax, 8(%esp)
	movl	12(%ebp), %eax
	movl	%eax, 4(%esp)
	movl	8(%ebp), %eax
	movl	%eax, (%esp)
	call	__ZSt6fill_nIPijiET_S1_T0_RKT1_
	leave
	.cfi_restore 5
	.cfi_def_cfa 4, 4
	ret
	.cfi_endproc
LFE8536:
	.section	.text$_ZN9__gnu_cxx13new_allocatorIiE8allocateEjPKv,"x"
	.linkonce discard
	.align 2
	.globl	__ZN9__gnu_cxx13new_allocatorIiE8allocateEjPKv
	.def	__ZN9__gnu_cxx13new_allocatorIiE8allocateEjPKv;	.scl	2;	.type	32;	.endef
__ZN9__gnu_cxx13new_allocatorIiE8allocateEjPKv:
LFB8561:
	.cfi_startproc
	pushl	%ebp
	.cfi_def_cfa_offset 8
	.cfi_offset 5, -8
	movl	%esp, %ebp
	.cfi_def_cfa_register 5
	subl	$40, %esp
	movl	%ecx, -12(%ebp)
	movl	-12(%ebp), %eax
	movl	%eax, %ecx
	call	__ZNK9__gnu_cxx13new_allocatorIiE8max_sizeEv
	cmpl	%eax, 8(%ebp)
	seta	%al
	testb	%al, %al
	je	L95
	call	__ZSt17__throw_bad_allocv
L95:
	movl	8(%ebp), %eax
	sall	$2, %eax
	movl	%eax, (%esp)
	call	__Znwj
	leave
	.cfi_restore 5
	.cfi_def_cfa 4, 4
	ret	$8
	.cfi_endproc
LFE8561:
	.section	.text$_ZSt6fill_nIPijiET_S1_T0_RKT1_,"x"
	.linkonce discard
	.globl	__ZSt6fill_nIPijiET_S1_T0_RKT1_
	.def	__ZSt6fill_nIPijiET_S1_T0_RKT1_;	.scl	2;	.type	32;	.endef
__ZSt6fill_nIPijiET_S1_T0_RKT1_:
LFB8562:
	.cfi_startproc
	pushl	%ebp
	.cfi_def_cfa_offset 8
	.cfi_offset 5, -8
	movl	%esp, %ebp
	.cfi_def_cfa_register 5
	subl	$24, %esp
	movl	8(%ebp), %eax
	movl	%eax, (%esp)
	call	__ZSt12__niter_baseIPiET_S1_
	movl	16(%ebp), %edx
	movl	%edx, 8(%esp)
	movl	12(%ebp), %edx
	movl	%edx, 4(%esp)
	movl	%eax, (%esp)
	call	__ZSt10__fill_n_aIPijiEN9__gnu_cxx11__enable_ifIXsrSt11__is_scalarIT1_E7__valueET_E6__typeES6_T0_RKS4_
	movl	%eax, 4(%esp)
	leal	8(%ebp), %eax
	movl	%eax, (%esp)
	call	__ZSt12__niter_wrapIPiET_RKS1_S1_
	leave
	.cfi_restore 5
	.cfi_def_cfa 4, 4
	ret
	.cfi_endproc
LFE8562:
	.section	.text$_ZSt12__niter_baseIPiET_S1_,"x"
	.linkonce discard
	.globl	__ZSt12__niter_baseIPiET_S1_
	.def	__ZSt12__niter_baseIPiET_S1_;	.scl	2;	.type	32;	.endef
__ZSt12__niter_baseIPiET_S1_:
LFB8571:
	.cfi_startproc
	pushl	%ebp
	.cfi_def_cfa_offset 8
	.cfi_offset 5, -8
	movl	%esp, %ebp
	.cfi_def_cfa_register 5
	movl	8(%ebp), %eax
	popl	%ebp
	.cfi_restore 5
	.cfi_def_cfa 4, 4
	ret
	.cfi_endproc
LFE8571:
	.section	.text$_ZSt10__fill_n_aIPijiEN9__gnu_cxx11__enable_ifIXsrSt11__is_scalarIT1_E7__valueET_E6__typeES6_T0_RKS4_,"x"
	.linkonce discard
	.globl	__ZSt10__fill_n_aIPijiEN9__gnu_cxx11__enable_ifIXsrSt11__is_scalarIT1_E7__valueET_E6__typeES6_T0_RKS4_
	.def	__ZSt10__fill_n_aIPijiEN9__gnu_cxx11__enable_ifIXsrSt11__is_scalarIT1_E7__valueET_E6__typeES6_T0_RKS4_;	.scl	2;	.type	32;	.endef
__ZSt10__fill_n_aIPijiEN9__gnu_cxx11__enable_ifIXsrSt11__is_scalarIT1_E7__valueET_E6__typeES6_T0_RKS4_:
LFB8572:
	.cfi_startproc
	pushl	%ebp
	.cfi_def_cfa_offset 8
	.cfi_offset 5, -8
	movl	%esp, %ebp
	.cfi_def_cfa_register 5
	subl	$16, %esp
	movl	16(%ebp), %eax
	movl	(%eax), %eax
	movl	%eax, -8(%ebp)
	movl	12(%ebp), %eax
	movl	%eax, -4(%ebp)
L103:
	cmpl	$0, -4(%ebp)
	je	L102
	movl	8(%ebp), %eax
	movl	-8(%ebp), %edx
	movl	%edx, (%eax)
	subl	$1, -4(%ebp)
	addl	$4, 8(%ebp)
	jmp	L103
L102:
	movl	8(%ebp), %eax
	leave
	.cfi_restore 5
	.cfi_def_cfa 4, 4
	ret
	.cfi_endproc
LFE8572:
	.section	.text$_ZSt12__niter_wrapIPiET_RKS1_S1_,"x"
	.linkonce discard
	.globl	__ZSt12__niter_wrapIPiET_RKS1_S1_
	.def	__ZSt12__niter_wrapIPiET_RKS1_S1_;	.scl	2;	.type	32;	.endef
__ZSt12__niter_wrapIPiET_RKS1_S1_:
LFB8573:
	.cfi_startproc
	pushl	%ebp
	.cfi_def_cfa_offset 8
	.cfi_offset 5, -8
	movl	%esp, %ebp
	.cfi_def_cfa_register 5
	movl	12(%ebp), %eax
	popl	%ebp
	.cfi_restore 5
	.cfi_def_cfa 4, 4
	ret
	.cfi_endproc
LFE8573:
	.text
	.def	___tcf_0;	.scl	3;	.type	32;	.endef
___tcf_0:
LFB8585:
	.cfi_startproc
	pushl	%ebp
	.cfi_def_cfa_offset 8
	.cfi_offset 5, -8
	movl	%esp, %ebp
	.cfi_def_cfa_register 5
	subl	$8, %esp
	movl	$__ZStL8__ioinit, %ecx
	call	__ZNSt8ios_base4InitD1Ev
	leave
	.cfi_restore 5
	.cfi_def_cfa 4, 4
	ret
	.cfi_endproc
LFE8585:
	.def	__Z41__static_initialization_and_destruction_0ii;	.scl	3;	.type	32;	.endef
__Z41__static_initialization_and_destruction_0ii:
LFB8584:
	.cfi_startproc
	pushl	%ebp
	.cfi_def_cfa_offset 8
	.cfi_offset 5, -8
	movl	%esp, %ebp
	.cfi_def_cfa_register 5
	subl	$24, %esp
	cmpl	$1, 8(%ebp)
	jne	L110
	cmpl	$65535, 12(%ebp)
	jne	L110
	movl	$__ZStL8__ioinit, %ecx
	call	__ZNSt8ios_base4InitC1Ev
	movl	$___tcf_0, (%esp)
	call	_atexit
L110:
	nop
	leave
	.cfi_restore 5
	.cfi_def_cfa 4, 4
	ret
	.cfi_endproc
LFE8584:
	.def	__GLOBAL__sub_I_main;	.scl	3;	.type	32;	.endef
__GLOBAL__sub_I_main:
LFB8586:
	.cfi_startproc
	pushl	%ebp
	.cfi_def_cfa_offset 8
	.cfi_offset 5, -8
	movl	%esp, %ebp
	.cfi_def_cfa_register 5
	subl	$24, %esp
	movl	$65535, 4(%esp)
	movl	$1, (%esp)
	call	__Z41__static_initialization_and_destruction_0ii
	leave
	.cfi_restore 5
	.cfi_def_cfa 4, 4
	ret
	.cfi_endproc
LFE8586:
	.section	.ctors,"w"
	.align 4
	.long	__GLOBAL__sub_I_main
	.section .rdata,"dr"
	.align 8
LC6:
	.long	-1717986918
	.long	1071225241
	.ident	"GCC: (MinGW.org GCC Build-2) 9.2.0"
	.def	_pow;	.scl	2;	.type	32;	.endef
	.def	__ZNSaIcEC1Ev;	.scl	2;	.type	32;	.endef
	.def	__ZNSt7__cxx1112basic_stringIcSt11char_traitsIcESaIcEEC1EPKcRKS3_;	.scl	2;	.type	32;	.endef
	.def	__ZNSaIcED1Ev;	.scl	2;	.type	32;	.endef
	.def	__ZStlsISt11char_traitsIcEERSt13basic_ostreamIcT_ES5_PKc;	.scl	2;	.type	32;	.endef
	.def	__ZNSolsEi;	.scl	2;	.type	32;	.endef
	.def	__ZSt4endlIcSt11char_traitsIcEERSt13basic_ostreamIT_T0_ES6_;	.scl	2;	.type	32;	.endef
	.def	__ZNSolsEPFRSoS_E;	.scl	2;	.type	32;	.endef
	.def	__ZNSolsEj;	.scl	2;	.type	32;	.endef
	.def	__ZNKSt7__cxx1112basic_stringIcSt11char_traitsIcESaIcEE6lengthEv;	.scl	2;	.type	32;	.endef
	.def	__ZNKSt7__cxx1112basic_stringIcSt11char_traitsIcESaIcEE4sizeEv;	.scl	2;	.type	32;	.endef
	.def	__ZNSolsEd;	.scl	2;	.type	32;	.endef
	.def	__Znaj;	.scl	2;	.type	32;	.endef
	.def	__ZNSirsERi;	.scl	2;	.type	32;	.endef
	.def	___cxa_throw_bad_array_new_length;	.scl	2;	.type	32;	.endef
	.def	__ZNSt7__cxx1112basic_stringIcSt11char_traitsIcESaIcEED1Ev;	.scl	2;	.type	32;	.endef
	.def	__Unwind_Resume;	.scl	2;	.type	32;	.endef
	.def	__ZSt20__throw_length_errorPKc;	.scl	2;	.type	32;	.endef
	.def	__ZdlPv;	.scl	2;	.type	32;	.endef
	.def	__ZSt17__throw_bad_allocv;	.scl	2;	.type	32;	.endef
	.def	__Znwj;	.scl	2;	.type	32;	.endef
	.def	__ZNSt8ios_base4InitD1Ev;	.scl	2;	.type	32;	.endef
	.def	__ZNSt8ios_base4InitC1Ev;	.scl	2;	.type	32;	.endef
	.def	_atexit;	.scl	2;	.type	32;	.endef
